target datalayout = "e-m:e-p270:32:32-p271:32:32-p272:64:64-i64:64-i128:128-f80:128-n8:16:32:64-S128"
target triple = "x86_64-pc-linux-gnu"

; Function Attrs: mustprogress uwtable
define internal noundef zeroext i16 @_ZL15_charPtr_charAtiPv(i32 noundef %0, ptr noundef %1) #0 {
  %3 = alloca i32, align 4
  %4 = alloca ptr, align 8
  %5 = alloca i16, align 2
  store i32 %0, ptr %3, align 4, !tbaa !8
  store ptr %1, ptr %4, align 8, !tbaa !68
  call void @llvm.lifetime.start.p0(i64 2, ptr %5) #7
  %6 = load ptr, ptr %4, align 8, !tbaa !68
  %7 = load i32, ptr %3, align 4, !tbaa !8
  %8 = sext i32 %7 to i64
  %9 = getelementptr inbounds i8, ptr %6, i64 %8
  call void @u_charsToUChars_77(ptr noundef %9, ptr noundef %5, i32 noundef 1)
  %10 = load i16, ptr %5, align 2, !tbaa !10
  call void @llvm.lifetime.end.p0(i64 2, ptr %5) #7
  ret i16 %10
}