; Function Attrs: mustprogress uwtable
define internal noundef zeroext i16 @_ZL15_charPtr_charAtiPv(i32 noundef %0, ptr noundef %1) #6 {
  %3 = alloca i16, align 2
  call void @llvm.lifetime.start.p0(i64 2, ptr nonnull %3) #14
  %4 = sext i32 %0 to i64
  %5 = getelementptr inbounds i8, ptr %1, i64 %4
  call void @u_charsToUChars_77(ptr noundef %5, ptr noundef nonnull %3, i32 noundef 1)
  %6 = load i16, ptr %3, align 2, !tbaa !3
  call void @llvm.lifetime.end.p0(i64 2, ptr nonnull %3) #14
  ret i16 %6
}